; Function Attrs: mustprogress uwtable
define hidden void @_ZN4cvc58internal15BoundVarManager13getCacheValueENS0_12NodeTemplateILb0EEES3_m(ptr dead_on_unwind noalias writable sret(%"class.cvc5::internal::NodeTemplate") align 8 %0, ptr noundef readonly captures(none) %1, ptr noundef readonly captures(none) %2, i64 noundef %3) local_unnamed_addr #5 align 2 personality ptr @__gxx_personality_v0 {
.noexc:
  %4 = alloca %"class.cvc5::internal::NodeBuilder", align 8
  %5 = alloca %"class.cvc5::internal::NodeTemplate.5", align 8
  %6 = alloca %"class.cvc5::internal::NodeTemplate.5", align 8
  %7 = alloca %"class.cvc5::internal::NodeTemplate.5", align 8
  %8 = alloca %"class.cvc5::internal::Rational", align 8
  %9 = alloca %"class.cvc5::internal::NodeTemplate", align 8
  %10 = load ptr, ptr %1, align 8, !tbaa !96
  %11 = load ptr, ptr %2, align 8, !tbaa !96
  call void @llvm.lifetime.start.p0(i64 8, ptr nonnull %9) #20
  %12 = tail call noundef ptr @_ZN4cvc58internal11NodeManager9currentNMEv()
  call void @llvm.lifetime.start.p0(i64 32, ptr nonnull %8) #20, !noalias !104
  call void @_ZN4cvc58internal8RationalC2Em(ptr noundef nonnull align 8 dereferenceable(32) %8, i64 noundef %3)
  invoke void @_ZN4cvc58internal11NodeManager10mkConstIntERKNS0_8RationalE(ptr dead_on_unwind nonnull writable sret(%"class.cvc5::internal::NodeTemplate") align 8 %9, ptr noundef nonnull align 8 dereferenceable(3560) %12, ptr noundef nonnull align 8 dereferenceable(32) %8)
          to label %13 unwind label %17

13:                                               ; preds = %.noexc
  invoke void @__gmpq_clear(ptr noundef nonnull align 8 dereferenceable(32) %8)
          to label %22 unwind label %14

14:                                               ; preds = %13
  %15 = landingpad { ptr, i32 }
          catch ptr null
  %16 = extractvalue { ptr, i32 } %15, 0
  call void @__clang_call_terminate(ptr %16) #21
  unreachable

17:                                               ; preds = %.noexc
  %18 = landingpad { ptr, i32 }
          cleanup
  invoke void @__gmpq_clear(ptr noundef nonnull align 8 dereferenceable(32) %8)
          to label %_ZN4cvc58internal8RationalD2Ev.exit2.i unwind label %19

19:                                               ; preds = %17
  %20 = landingpad { ptr, i32 }
          catch ptr null
  %21 = extractvalue { ptr, i32 } %20, 0
  call void @__clang_call_terminate(ptr %21) #21
  unreachable

_ZN4cvc58internal8RationalD2Ev.exit2.i:           ; preds = %17
  call void @llvm.lifetime.end.p0(i64 32, ptr nonnull %8) #20, !noalias !104
  br label %.body

22:                                               ; preds = %13
  call void @llvm.lifetime.end.p0(i64 32, ptr nonnull %8) #20, !noalias !104
  %23 = load ptr, ptr %9, align 8, !tbaa !20
  call void @llvm.lifetime.start.p0(i64 8, ptr nonnull %5)
  call void @llvm.lifetime.start.p0(i64 8, ptr nonnull %6)
  call void @llvm.lifetime.start.p0(i64 8, ptr nonnull %7)
  call void @llvm.lifetime.start.p0(i64 128, ptr nonnull %4) #20, !noalias !107
  %24 = getelementptr inbounds nuw i8, ptr %10, i64 16
  %25 = load ptr, ptr %24, align 8, !tbaa !23, !noalias !107
  invoke void @_ZN4cvc58internal11NodeBuilderC1EPNS0_11NodeManagerENS0_4kind6Kind_tE(ptr noundef nonnull align 8 dereferenceable(124) %4, ptr noundef %25, i32 noundef 11)
          to label %.noexc5 unwind label %55

.noexc5:                                          ; preds = %22
  store ptr %10, ptr %5, align 8, !tbaa !96, !noalias !107
  %26 = invoke noundef nonnull align 8 dereferenceable(124) ptr @_ZN4cvc58internal11NodeBuilderlsENS0_12NodeTemplateILb0EEE(ptr noundef nonnull align 8 dereferenceable(124) %4, ptr noundef nonnull %5)
          to label %27 unwind label %34, !noalias !107

27:                                               ; preds = %.noexc5
  store ptr %11, ptr %6, align 8, !tbaa !96, !noalias !107
  %28 = invoke noundef nonnull align 8 dereferenceable(124) ptr @_ZN4cvc58internal11NodeBuilderlsENS0_12NodeTemplateILb0EEE(ptr noundef nonnull align 8 dereferenceable(124) %26, ptr noundef nonnull %6)
          to label %29 unwind label %36, !noalias !107

29:                                               ; preds = %27
  store ptr %23, ptr %7, align 8, !tbaa !96, !noalias !107
  %30 = invoke noundef nonnull align 8 dereferenceable(124) ptr @_ZN4cvc58internal11NodeBuilderlsENS0_12NodeTemplateILb0EEE(ptr noundef nonnull align 8 dereferenceable(124) %28, ptr noundef nonnull %7)
          to label %31 unwind label %38, !noalias !107

31:                                               ; preds = %29
  invoke void @_ZN4cvc58internal11NodeBuilder13constructNodeEv(ptr dead_on_unwind writable sret(%"class.cvc5::internal::NodeTemplate") align 8 %0, ptr noundef nonnull align 8 dereferenceable(124) %4)
          to label %41 unwind label %32

32:                                               ; preds = %31
  %33 = landingpad { ptr, i32 }
          cleanup
  br label %40

34:                                               ; preds = %.noexc5
  %35 = landingpad { ptr, i32 }
          cleanup
  br label %40

36:                                               ; preds = %27
  %37 = landingpad { ptr, i32 }
          cleanup
  br label %40

38:                                               ; preds = %29
  %39 = landingpad { ptr, i32 }
          cleanup
  br label %40

40:                                               ; preds = %38, %36, %34, %32
  %.pn7.i = phi { ptr, i32 } [ %33, %32 ], [ %35, %34 ], [ %39, %38 ], [ %37, %36 ]
  call void @_ZN4cvc58internal11NodeBuilderD1Ev(ptr noundef nonnull align 8 dereferenceable(124) %4) #20
  call void @llvm.lifetime.end.p0(i64 128, ptr nonnull %4) #20, !noalias !107
  br label %.body6

41:                                               ; preds = %31
  call void @_ZN4cvc58internal11NodeBuilderD1Ev(ptr noundef nonnull align 8 dereferenceable(124) %4) #20
  call void @llvm.lifetime.end.p0(i64 128, ptr nonnull %4) #20, !noalias !107
  call void @llvm.lifetime.end.p0(i64 8, ptr nonnull %5)
  call void @llvm.lifetime.end.p0(i64 8, ptr nonnull %6)
  call void @llvm.lifetime.end.p0(i64 8, ptr nonnull %7)
  %42 = load ptr, ptr %9, align 8, !tbaa !20
  %43 = load i64, ptr %42, align 8
  %44 = and i64 %43, 1152920405095219200
  %.not.i.i = icmp eq i64 %44, 1152920405095219200
  br i1 %.not.i.i, label %_ZN4cvc58internal12NodeTemplateILb1EED2Ev.exit, label %45, !prof !110

45:                                               ; preds = %41
  %46 = add i64 %43, 1152920405095219200
  %47 = and i64 %46, 1152920405095219200
  %48 = and i64 %43, -1152920405095219201
  %49 = or disjoint i64 %47, %48
  store i64 %49, ptr %42, align 8
  %50 = icmp eq i64 %47, 0
  br i1 %50, label %51, label %_ZN4cvc58internal12NodeTemplateILb1EED2Ev.exit, !prof !110

51:                                               ; preds = %45
  invoke void @_ZN4cvc58internal4expr9NodeValue15markForDeletionEv(ptr noundef nonnull align 8 dereferenceable(24) %42)
          to label %_ZN4cvc58internal12NodeTemplateILb1EED2Ev.exit unwind label %52

52:                                               ; preds = %51
  %53 = landingpad { ptr, i32 }
          catch ptr null
  %54 = extractvalue { ptr, i32 } %53, 0
  call void @__clang_call_terminate(ptr %54) #21
  unreachable

_ZN4cvc58internal12NodeTemplateILb1EED2Ev.exit:   ; preds = %41, %45, %51
  call void @llvm.lifetime.end.p0(i64 8, ptr nonnull %9) #20
  ret void

55:                                               ; preds = %22
  %56 = landingpad { ptr, i32 }
          cleanup
  br label %.body6

.body6:                                           ; preds = %40, %55
  %eh.lpad-body7 = phi { ptr, i32 } [ %56, %55 ], [ %.pn7.i, %40 ]
  call void @_ZN4cvc58internal12NodeTemplateILb1EED2Ev(ptr noundef nonnull align 8 dereferenceable(8) %9) #20
  br label %.body

.body:                                            ; preds = %_ZN4cvc58internal8RationalD2Ev.exit2.i, %.body6
  %.pn = phi { ptr, i32 } [ %eh.lpad-body7, %.body6 ], [ %18, %_ZN4cvc58internal8RationalD2Ev.exit2.i ]
  call void @llvm.lifetime.end.p0(i64 8, ptr nonnull %9) #20
  resume { ptr, i32 } %.pn
}